target datalayout = "e-m:e-p270:32:32-p271:32:32-p272:64:64-i64:64-i128:128-f80:128-n8:16:32:64-S128"
target triple = "x86_64-pc-linux-gnu"

%struct.mbedtls_mpi = type { i32, i64, ptr }

; Function Attrs: mustprogress nounwind uwtable
define hidden void @_Z31mbedtls_ct_mpi_uint_cond_assignmPmPKmh(i64 noundef %0, ptr noundef %1, ptr noundef %2, i8 noundef zeroext %3) #0 {
  %5 = alloca i64, align 8
  %6 = alloca ptr, align 8
  %7 = alloca ptr, align 8
  %8 = alloca i8, align 1
  %9 = alloca i64, align 8
  %10 = alloca i64, align 8
  store i64 %0, ptr %5, align 8, !tbaa !7
  store ptr %1, ptr %6, align 8, !tbaa !16
  store ptr %2, ptr %7, align 8, !tbaa !16
  store i8 %3, ptr %8, align 1, !tbaa !11
  call void @llvm.lifetime.start.p0(i64 8, ptr %9) #5
  call void @llvm.lifetime.start.p0(i64 8, ptr %10) #5
  %11 = load i8, ptr %8, align 1, !tbaa !11
  %12 = zext i8 %11 to i32
  %13 = sub nsw i32 0, %12
  %14 = sext i32 %13 to i64
  store i64 %14, ptr %10, align 8, !tbaa !7
  store i64 0, ptr %9, align 8, !tbaa !7
  br label %15

15:                                               ; preds = %37, %4
  %16 = load i64, ptr %9, align 8, !tbaa !7
  %17 = load i64, ptr %5, align 8, !tbaa !7
  %18 = icmp ult i64 %16, %17
  br i1 %18, label %19, label %40

19:                                               ; preds = %15
  %20 = load ptr, ptr %7, align 8, !tbaa !16
  %21 = load i64, ptr %9, align 8, !tbaa !7
  %22 = getelementptr inbounds nuw i64, ptr %20, i64 %21
  %23 = load i64, ptr %22, align 8, !tbaa !7
  %24 = load i64, ptr %10, align 8, !tbaa !7
  %25 = and i64 %23, %24
  %26 = load ptr, ptr %6, align 8, !tbaa !16
  %27 = load i64, ptr %9, align 8, !tbaa !7
  %28 = getelementptr inbounds nuw i64, ptr %26, i64 %27
  %29 = load i64, ptr %28, align 8, !tbaa !7
  %30 = load i64, ptr %10, align 8, !tbaa !7
  %31 = xor i64 %30, -1
  %32 = and i64 %29, %31
  %33 = or i64 %25, %32
  %34 = load ptr, ptr %6, align 8, !tbaa !16
  %35 = load i64, ptr %9, align 8, !tbaa !7
  %36 = getelementptr inbounds nuw i64, ptr %34, i64 %35
  store i64 %33, ptr %36, align 8, !tbaa !7
  br label %37

37:                                               ; preds = %19
  %38 = load i64, ptr %9, align 8, !tbaa !7
  %39 = add i64 %38, 1
  store i64 %39, ptr %9, align 8, !tbaa !7
  br label %15, !llvm.loop !18

40:                                               ; preds = %15
  call void @llvm.lifetime.end.p0(i64 8, ptr %10) #5
  call void @llvm.lifetime.end.p0(i64 8, ptr %9) #5
  ret void
}

; Function Attrs: mustprogress nounwind uwtable
define internal noundef i32 @_ZL27mbedtls_ct_cond_select_signhii(i8 noundef zeroext %0, i32 noundef %1, i32 noundef %2) #0 {
  %4 = alloca i8, align 1
  %5 = alloca i32, align 4
  %6 = alloca i32, align 4
  %7 = alloca i32, align 4
  %8 = alloca i32, align 4
  %9 = alloca i32, align 4
  %10 = alloca i32, align 4
  store i8 %0, ptr %4, align 1, !tbaa !11
  store i32 %1, ptr %5, align 4, !tbaa !14
  store i32 %2, ptr %6, align 4, !tbaa !14
  call void @llvm.lifetime.start.p0(i64 4, ptr %7) #5
  %11 = load i32, ptr %5, align 4, !tbaa !14
  %12 = add nsw i32 %11, 1
  store i32 %12, ptr %7, align 4, !tbaa !14
  call void @llvm.lifetime.start.p0(i64 4, ptr %8) #5
  %13 = load i32, ptr %6, align 4, !tbaa !14
  %14 = add nsw i32 %13, 1
  store i32 %14, ptr %8, align 4, !tbaa !14
  call void @llvm.lifetime.start.p0(i64 4, ptr %9) #5
  %15 = load i8, ptr %4, align 1, !tbaa !11
  %16 = zext i8 %15 to i32
  %17 = shl i32 %16, 1
  store i32 %17, ptr %9, align 4, !tbaa !14
  call void @llvm.lifetime.start.p0(i64 4, ptr %10) #5
  %18 = load i32, ptr %8, align 4, !tbaa !14
  %19 = load i32, ptr %9, align 4, !tbaa !14
  %20 = xor i32 %19, -1
  %21 = and i32 %18, %20
  %22 = load i32, ptr %7, align 4, !tbaa !14
  %23 = load i32, ptr %9, align 4, !tbaa !14
  %24 = and i32 %22, %23
  %25 = or i32 %21, %24
  store i32 %25, ptr %10, align 4, !tbaa !14
  %26 = load i32, ptr %10, align 4, !tbaa !14
  %27 = sub nsw i32 %26, 1
  call void @llvm.lifetime.end.p0(i64 4, ptr %10) #5
  call void @llvm.lifetime.end.p0(i64 4, ptr %9) #5
  call void @llvm.lifetime.end.p0(i64 4, ptr %8) #5
  call void @llvm.lifetime.end.p0(i64 4, ptr %7) #5
  ret i32 %27
}

; Function Attrs: mustprogress nounwind uwtable
define hidden noundef i64 @_Z24mbedtls_ct_mpi_uint_maskm(i64 noundef %0) #0 {
  %2 = alloca i64, align 8
  store i64 %0, ptr %2, align 8, !tbaa !7
  %3 = load i64, ptr %2, align 8, !tbaa !7
  %4 = load i64, ptr %2, align 8, !tbaa !7
  %5 = sub i64 0, %4
  %6 = or i64 %3, %5
  %7 = lshr i64 %6, 63
  %8 = sub i64 0, %7
  ret i64 %8
}

; Function Attrs: mustprogress uwtable
define hidden i32 @mbedtls_mpi_safe_cond_assign(ptr noundef %0, ptr noundef %1, i8 noundef zeroext %2) #2 {
  %4 = alloca ptr, align 8
  %5 = alloca ptr, align 8
  %6 = alloca i8, align 1
  %7 = alloca i32, align 4
  %8 = alloca i64, align 8
  %9 = alloca i64, align 8
  store ptr %0, ptr %4, align 8, !tbaa !19
  store ptr %1, ptr %5, align 8, !tbaa !19
  store i8 %2, ptr %6, align 1, !tbaa !11
  call void @llvm.lifetime.start.p0(i64 4, ptr %7) #5
  store i32 0, ptr %7, align 4, !tbaa !14
  call void @llvm.lifetime.start.p0(i64 8, ptr %8) #5
  call void @llvm.lifetime.start.p0(i64 8, ptr %9) #5
  br label %10

10:                                               ; preds = %3
  br label %11

11:                                               ; preds = %10
  br label %12

12:                                               ; preds = %11
  br label %13

13:                                               ; preds = %12
  br label %14

14:                                               ; preds = %13
  br label %15

15:                                               ; preds = %14
  %16 = load i8, ptr %6, align 1, !tbaa !11
  %17 = zext i8 %16 to i64
  %18 = call noundef i64 @_Z24mbedtls_ct_mpi_uint_maskm(i64 noundef %17)
  store i64 %18, ptr %9, align 8, !tbaa !7
  br label %19

19:                                               ; preds = %15
  %20 = load ptr, ptr %4, align 8, !tbaa !19
  %21 = load ptr, ptr %5, align 8, !tbaa !19
  %22 = getelementptr inbounds nuw %struct.mbedtls_mpi, ptr %21, i32 0, i32 1
  %23 = load i64, ptr %22, align 8, !tbaa !21
  %24 = call i32 @mbedtls_mpi_grow(ptr noundef %20, i64 noundef %23)
  store i32 %24, ptr %7, align 4, !tbaa !14
  %25 = icmp ne i32 %24, 0
  br i1 %25, label %26, label %27

26:                                               ; preds = %19
  br label %73

27:                                               ; preds = %19
  br label %28

28:                                               ; preds = %27
  br label %29

29:                                               ; preds = %28
  %30 = load i8, ptr %6, align 1, !tbaa !11
  %31 = load ptr, ptr %5, align 8, !tbaa !19
  %32 = getelementptr inbounds nuw %struct.mbedtls_mpi, ptr %31, i32 0, i32 0
  %33 = load i32, ptr %32, align 8, !tbaa !23
  %34 = load ptr, ptr %4, align 8, !tbaa !19
  %35 = getelementptr inbounds nuw %struct.mbedtls_mpi, ptr %34, i32 0, i32 0
  %36 = load i32, ptr %35, align 8, !tbaa !23
  %37 = call noundef i32 @_ZL27mbedtls_ct_cond_select_signhii(i8 noundef zeroext %30, i32 noundef %33, i32 noundef %36)
  %38 = load ptr, ptr %4, align 8, !tbaa !19
  %39 = getelementptr inbounds nuw %struct.mbedtls_mpi, ptr %38, i32 0, i32 0
  store i32 %37, ptr %39, align 8, !tbaa !23
  %40 = load ptr, ptr %5, align 8, !tbaa !19
  %41 = getelementptr inbounds nuw %struct.mbedtls_mpi, ptr %40, i32 0, i32 1
  %42 = load i64, ptr %41, align 8, !tbaa !21
  %43 = load ptr, ptr %4, align 8, !tbaa !19
  %44 = getelementptr inbounds nuw %struct.mbedtls_mpi, ptr %43, i32 0, i32 2
  %45 = load ptr, ptr %44, align 8, !tbaa !24
  %46 = load ptr, ptr %5, align 8, !tbaa !19
  %47 = getelementptr inbounds nuw %struct.mbedtls_mpi, ptr %46, i32 0, i32 2
  %48 = load ptr, ptr %47, align 8, !tbaa !24
  %49 = load i8, ptr %6, align 1, !tbaa !11
  call void @_Z31mbedtls_ct_mpi_uint_cond_assignmPmPKmh(i64 noundef %42, ptr noundef %45, ptr noundef %48, i8 noundef zeroext %49)
  %50 = load ptr, ptr %5, align 8, !tbaa !19
  %51 = getelementptr inbounds nuw %struct.mbedtls_mpi, ptr %50, i32 0, i32 1
  %52 = load i64, ptr %51, align 8, !tbaa !21
  store i64 %52, ptr %8, align 8, !tbaa !7
  br label %53

53:                                               ; preds = %69, %29
  %54 = load i64, ptr %8, align 8, !tbaa !7
  %55 = load ptr, ptr %4, align 8, !tbaa !19
  %56 = getelementptr inbounds nuw %struct.mbedtls_mpi, ptr %55, i32 0, i32 1
  %57 = load i64, ptr %56, align 8, !tbaa !21
  %58 = icmp ult i64 %54, %57
  br i1 %58, label %59, label %72

59:                                               ; preds = %53
  %60 = load i64, ptr %9, align 8, !tbaa !7
  %61 = xor i64 %60, -1
  %62 = load ptr, ptr %4, align 8, !tbaa !19
  %63 = getelementptr inbounds nuw %struct.mbedtls_mpi, ptr %62, i32 0, i32 2
  %64 = load ptr, ptr %63, align 8, !tbaa !24
  %65 = load i64, ptr %8, align 8, !tbaa !7
  %66 = getelementptr inbounds nuw i64, ptr %64, i64 %65
  %67 = load i64, ptr %66, align 8, !tbaa !7
  %68 = and i64 %67, %61
  store i64 %68, ptr %66, align 8, !tbaa !7
  br label %69

69:                                               ; preds = %59
  %70 = load i64, ptr %8, align 8, !tbaa !7
  %71 = add i64 %70, 1
  store i64 %71, ptr %8, align 8, !tbaa !7
  br label %53, !llvm.loop !25

72:                                               ; preds = %53
  br label %73

73:                                               ; preds = %72, %26
  %74 = load i32, ptr %7, align 4, !tbaa !14
  call void @llvm.lifetime.end.p0(i64 8, ptr %9) #5
  call void @llvm.lifetime.end.p0(i64 8, ptr %8) #5
  call void @llvm.lifetime.end.p0(i64 4, ptr %7) #5
  ret i32 %74
}