; Function Attrs: mustprogress uwtable
define hidden i32 @mbedtls_mpi_safe_cond_assign(ptr noundef %0, ptr noundef readonly captures(none) %1, i8 noundef zeroext %2) local_unnamed_addr #4 {
  %4 = zext i8 %2 to i64
  %5 = getelementptr inbounds nuw i8, ptr %1, i64 8
  %6 = load i64, ptr %5, align 8, !tbaa !11
  %7 = tail call i32 @mbedtls_mpi_grow(ptr noundef %0, i64 noundef %6)
  %.not = icmp eq i32 %7, 0
  br i1 %.not, label %8, label %.loopexit

8:                                                ; preds = %3
  %9 = load i32, ptr %1, align 8, !tbaa !16
  %10 = load i32, ptr %0, align 8, !tbaa !16
  %11 = add nsw i32 %9, 1
  %12 = add nsw i32 %10, 1
  %13 = zext i8 %2 to i32
  %14 = shl nuw nsw i32 %13, 1
  %15 = xor i32 %14, -1
  %16 = and i32 %12, %15
  %17 = and i32 %11, %14
  %18 = add nsw i32 %17, -1
  %19 = add i32 %18, %16
  store i32 %19, ptr %0, align 8, !tbaa !16
  %20 = load i64, ptr %5, align 8, !tbaa !11
  %21 = getelementptr inbounds nuw i8, ptr %0, i64 16
  %22 = load ptr, ptr %21, align 8, !tbaa !17
  %23 = getelementptr inbounds nuw i8, ptr %1, i64 16
  %24 = load ptr, ptr %23, align 8, !tbaa !17
  %25 = sub nsw i64 0, %4
  %.not.i = icmp eq i64 %20, 0
  br i1 %.not.i, label %_Z31mbedtls_ct_mpi_uint_cond_assignmPmPKmh.exit, label %.lr.ph.i

.lr.ph.i:                                         ; preds = %8
  %26 = add nsw i64 %4, -1
  br label %27

27:                                               ; preds = %27, %.lr.ph.i
  %.011.i = phi i64 [ 0, %.lr.ph.i ], [ %35, %27 ]
  %28 = getelementptr inbounds nuw i64, ptr %24, i64 %.011.i
  %29 = load i64, ptr %28, align 8, !tbaa !8
  %30 = and i64 %29, %25
  %31 = getelementptr inbounds nuw i64, ptr %22, i64 %.011.i
  %32 = load i64, ptr %31, align 8, !tbaa !8
  %33 = and i64 %32, %26
  %34 = or i64 %33, %30
  store i64 %34, ptr %31, align 8, !tbaa !8
  %35 = add nuw i64 %.011.i, 1
  %exitcond.not.i = icmp eq i64 %35, %20
  br i1 %exitcond.not.i, label %_Z31mbedtls_ct_mpi_uint_cond_assignmPmPKmh.exit.loopexit, label %27, !llvm.loop !10

_Z31mbedtls_ct_mpi_uint_cond_assignmPmPKmh.exit.loopexit: ; preds = %27
  %.pre = load i64, ptr %5, align 8, !tbaa !11
  br label %_Z31mbedtls_ct_mpi_uint_cond_assignmPmPKmh.exit

_Z31mbedtls_ct_mpi_uint_cond_assignmPmPKmh.exit:  ; preds = %_Z31mbedtls_ct_mpi_uint_cond_assignmPmPKmh.exit.loopexit, %8
  %36 = phi i64 [ %.pre, %_Z31mbedtls_ct_mpi_uint_cond_assignmPmPKmh.exit.loopexit ], [ 0, %8 ]
  %37 = getelementptr inbounds nuw i8, ptr %0, i64 8
  %38 = load i64, ptr %37, align 8, !tbaa !11
  %39 = icmp uge i64 %36, %38
  %40 = icmp eq i8 %2, 0
  %or.cond = or i1 %39, %40
  br i1 %or.cond, label %.loopexit, label %.lr.ph.split

.lr.ph.split:                                     ; preds = %_Z31mbedtls_ct_mpi_uint_cond_assignmPmPKmh.exit, %.lr.ph.split
  %.018 = phi i64 [ %42, %.lr.ph.split ], [ %36, %_Z31mbedtls_ct_mpi_uint_cond_assignmPmPKmh.exit ]
  %41 = getelementptr inbounds nuw i64, ptr %22, i64 %.018
  store i64 0, ptr %41, align 8, !tbaa !8
  %42 = add nuw i64 %.018, 1
  %43 = load i64, ptr %37, align 8, !tbaa !11
  %44 = icmp ult i64 %42, %43
  br i1 %44, label %.lr.ph.split, label %.loopexit, !llvm.loop !18

.loopexit:                                        ; preds = %.lr.ph.split, %_Z31mbedtls_ct_mpi_uint_cond_assignmPmPKmh.exit, %3
  ret i32 %7
}